; Function Attrs: mustprogress uwtable
define hidden void @_ZN2cv5aruco14_convertToGreyERKNS_11_InputArrayERNS_3MatE(ptr noundef nonnull align 8 dereferenceable(24) %0, ptr noundef nonnull align 8 dereferenceable(96) %1) local_unnamed_addr #0 personality ptr @__gxx_personality_v0 {
  %3 = alloca %"class.std::__cxx11::basic_string", align 8
  %4 = alloca %"class.std::allocator.5", align 1
  %5 = alloca %"class.cv::_OutputArray", align 8
  %6 = alloca %"class.cv::Mat", align 8
  %7 = tail call noundef i32 @_ZNK2cv11_InputArray4typeEi(ptr noundef nonnull align 8 dereferenceable(24) %0, i32 noundef -1)
  %8 = icmp eq i32 %7, 0
  br i1 %8, label %23, label %9

9:                                                ; preds = %2
  %10 = tail call noundef i32 @_ZNK2cv11_InputArray4typeEi(ptr noundef nonnull align 8 dereferenceable(24) %0, i32 noundef -1)
  %11 = icmp eq i32 %10, 16
  br i1 %11, label %23, label %12

12:                                               ; preds = %9
  %13 = tail call noundef i32 @_ZNK2cv11_InputArray4typeEi(ptr noundef nonnull align 8 dereferenceable(24) %0, i32 noundef -1)
  %14 = icmp eq i32 %13, 24
  br i1 %14, label %23, label %15

15:                                               ; preds = %12
  call void @_ZNSaIcEC1Ev(ptr noundef nonnull align 1 dereferenceable(1) %4) #6
  invoke void @_ZNSt7__cxx1112basic_stringIcSt11char_traitsIcESaIcEEC1EPKcRKS3_(ptr noundef nonnull align 8 dereferenceable(32) %3, ptr noundef nonnull @.str.2, ptr noundef nonnull align 1 dereferenceable(1) %4)
          to label %16 unwind label %18

16:                                               ; preds = %15
  invoke void @_ZN2cv5errorEiRKNSt7__cxx1112basic_stringIcSt11char_traitsIcESaIcEEEPKcS9_i(i32 noundef -215, ptr noundef nonnull align 8 dereferenceable(32) %3, ptr noundef nonnull @__func__._ZN2cv5aruco14_convertToGreyERKNS_11_InputArrayERNS_3MatE, ptr noundef nonnull @.str.1, i32 noundef 42) #7
          to label %17 unwind label %20

17:                                               ; preds = %16
  unreachable

18:                                               ; preds = %15
  %19 = landingpad { ptr, i32 }
          cleanup
  br label %22

20:                                               ; preds = %16
  %21 = landingpad { ptr, i32 }
          cleanup
  call void @_ZNSt7__cxx1112basic_stringIcSt11char_traitsIcESaIcEED1Ev(ptr noundef nonnull align 8 dereferenceable(32) %3) #6
  br label %22

22:                                               ; preds = %20, %18
  %.pn = phi { ptr, i32 } [ %21, %20 ], [ %19, %18 ]
  call void @_ZNSaIcED1Ev(ptr noundef nonnull align 1 dereferenceable(1) %4) #6
  br label %40

23:                                               ; preds = %12, %9, %2
  %24 = tail call noundef i32 @_ZNK2cv11_InputArray4typeEi(ptr noundef nonnull align 8 dereferenceable(24) %0, i32 noundef -1)
  %.not = icmp eq i32 %24, 0
  br i1 %.not, label %28, label %25

25:                                               ; preds = %23
  %26 = getelementptr inbounds i8, ptr %5, i64 8
  %27 = getelementptr inbounds i8, ptr %5, i64 16
  store i64 0, ptr %27, align 8
  store i32 33619968, ptr %5, align 8
  store ptr %1, ptr %26, align 8
  call void @_ZN2cv8cvtColorERKNS_11_InputArrayERKNS_12_OutputArrayEii(ptr noundef nonnull align 8 dereferenceable(24) %0, ptr noundef nonnull align 8 dereferenceable(24) %5, i32 noundef 6, i32 noundef 0)
  br label %39

28:                                               ; preds = %23
  %29 = tail call noundef i32 @_ZNK2cv11_InputArray4kindEv(ptr noundef nonnull align 8 dereferenceable(24) %0), !noalias !20
  %30 = icmp eq i32 %29, 65536
  br i1 %30, label %31, label %34

31:                                               ; preds = %28
  %32 = getelementptr inbounds i8, ptr %0, i64 8
  %33 = load ptr, ptr %32, align 8, !noalias !20
  call void @_ZN2cv3MatC1ERKS0_(ptr noundef nonnull align 8 dereferenceable(96) %6, ptr noundef nonnull align 8 dereferenceable(96) %33)
  br label %_ZNK2cv11_InputArray6getMatEi.exit

34:                                               ; preds = %28
  call void @_ZNK2cv11_InputArray7getMat_Ei(ptr dead_on_unwind nonnull writable sret(%"class.cv::Mat") align 8 %6, ptr noundef nonnull align 8 dereferenceable(24) %0, i32 noundef -1)
  br label %_ZNK2cv11_InputArray6getMatEi.exit

_ZNK2cv11_InputArray6getMatEi.exit:               ; preds = %31, %34
  %35 = invoke noundef nonnull align 8 dereferenceable(96) ptr @_ZN2cv3MataSEOS0_(ptr noundef nonnull align 8 dereferenceable(96) %1, ptr noundef nonnull align 8 dereferenceable(96) %6)
          to label %36 unwind label %37

36:                                               ; preds = %_ZNK2cv11_InputArray6getMatEi.exit
  call void @_ZN2cv3MatD1Ev(ptr noundef nonnull align 8 dereferenceable(96) %6) #6
  br label %39

37:                                               ; preds = %_ZNK2cv11_InputArray6getMatEi.exit
  %38 = landingpad { ptr, i32 }
          cleanup
  call void @_ZN2cv3MatD1Ev(ptr noundef nonnull align 8 dereferenceable(96) %6) #6
  br label %40

39:                                               ; preds = %25, %36
  ret void

40:                                               ; preds = %37, %22
  %.pn12 = phi { ptr, i32 } [ %38, %37 ], [ %.pn, %22 ]
  resume { ptr, i32 } %.pn12
}